; ModuleID = '55/114.c'
source_filename = "55/114.c"
target datalayout = "e-m:e-p270:32:32-p271:32:32-p272:64:64-i64:64-f80:128-n8:16:32:64-S128"
target triple = "x86_64-pc-linux-gnu"

@.str = private unnamed_addr constant [9 x i8] c"%d %s %d\00", align 1

; Function Attrs: noinline nounwind uwtable
define dso_local i32 @chrtoint(i8 signext %0) #0 {
  %2 = alloca i32, align 4
  %3 = alloca i8, align 1
  store i8 %0, i8* %3, align 1
  %4 = load i8, i8* %3, align 1
  %5 = sext i8 %4 to i32
  %6 = icmp sge i32 %5, 48
  br i1 %6, label %7, label %15

7:                                                ; preds = %1
  %8 = load i8, i8* %3, align 1
  %9 = sext i8 %8 to i32
  %10 = icmp sle i32 %9, 57
  br i1 %10, label %11, label %15

11:                                               ; preds = %7
  %12 = load i8, i8* %3, align 1
  %13 = sext i8 %12 to i32
  %14 = sub nsw i32 %13, 48
  store i32 %14, i32* %2, align 4
  br label %42

15:                                               ; preds = %7, %1
  %16 = load i8, i8* %3, align 1
  %17 = sext i8 %16 to i32
  %18 = icmp sge i32 %17, 65
  br i1 %18, label %19, label %28

19:                                               ; preds = %15
  %20 = load i8, i8* %3, align 1
  %21 = sext i8 %20 to i32
  %22 = icmp sle i32 %21, 90
  br i1 %22, label %23, label %28

23:                                               ; preds = %19
  %24 = load i8, i8* %3, align 1
  %25 = sext i8 %24 to i32
  %26 = sub nsw i32 %25, 65
  %27 = add nsw i32 %26, 10
  store i32 %27, i32* %2, align 4
  br label %42

28:                                               ; preds = %19, %15
  %29 = load i8, i8* %3, align 1
  %30 = sext i8 %29 to i32
  %31 = icmp sge i32 %30, 97
  br i1 %31, label %32, label %41

32:                                               ; preds = %28
  %33 = load i8, i8* %3, align 1
  %34 = sext i8 %33 to i32
  %35 = icmp sle i32 %34, 122
  br i1 %35, label %36, label %41

36:                                               ; preds = %32
  %37 = load i8, i8* %3, align 1
  %38 = sext i8 %37 to i32
  %39 = sub nsw i32 %38, 97
  %40 = add nsw i32 %39, 10
  store i32 %40, i32* %2, align 4
  br label %42

41:                                               ; preds = %32, %28
  store i32 -1, i32* %2, align 4
  br label %42

42:                                               ; preds = %41, %36, %23, %11
  %43 = load i32, i32* %2, align 4
  ret i32 %43
}

; Function Attrs: noinline nounwind uwtable
define dso_local signext i8 @inttochr(i32 %0) #0 {
  %2 = alloca i8, align 1
  %3 = alloca i32, align 4
  store i32 %0, i32* %3, align 4
  %4 = load i32, i32* %3, align 4
  %5 = icmp sge i32 %4, 0
  br i1 %5, label %6, label %13

6:                                                ; preds = %1
  %7 = load i32, i32* %3, align 4
  %8 = icmp sle i32 %7, 9
  br i1 %8, label %9, label %13

9:                                                ; preds = %6
  %10 = load i32, i32* %3, align 4
  %11 = add nsw i32 %10, 48
  %12 = trunc i32 %11 to i8
  store i8 %12, i8* %2, align 1
  br label %25

13:                                               ; preds = %6, %1
  %14 = load i32, i32* %3, align 4
  %15 = icmp sge i32 %14, 10
  br i1 %15, label %16, label %24

16:                                               ; preds = %13
  %17 = load i32, i32* %3, align 4
  %18 = icmp sle i32 %17, 35
  br i1 %18, label %19, label %24

19:                                               ; preds = %16
  %20 = load i32, i32* %3, align 4
  %21 = sub nsw i32 %20, 10
  %22 = add nsw i32 %21, 65
  %23 = trunc i32 %22 to i8
  store i8 %23, i8* %2, align 1
  br label %25

24:                                               ; preds = %16, %13
  store i8 -1, i8* %2, align 1
  br label %25

25:                                               ; preds = %24, %19, %9
  %26 = load i8, i8* %2, align 1
  ret i8 %26
}

; Function Attrs: noinline nounwind uwtable
define dso_local i32 @main() #0 {
  %1 = alloca i32, align 4
  %2 = alloca [100 x i8], align 16
  %3 = alloca i64, align 8
  %4 = alloca i64, align 8
  %5 = alloca i64, align 8
  %6 = alloca i32, align 4
  %7 = alloca i32, align 4
  store i32 0, i32* %1, align 4
  %8 = bitcast [100 x i8]* %2 to i8*
  call void @llvm.memset.p0i8.i64(i8* align 16 %8, i8 0, i64 100, i1 false)
  %9 = getelementptr inbounds [100 x i8], [100 x i8]* %2, i64 0, i64 0
  %10 = call i32 (i8*, ...) @__isoc99_scanf(i8* getelementptr inbounds ([9 x i8], [9 x i8]* @.str, i64 0, i64 0), i64* %3, i8* %9, i64* %4)
  store i32 0, i32* %6, align 4
  br label %11

11:                                               ; preds = %18, %0
  %12 = load i32, i32* %6, align 4
  %13 = sext i32 %12 to i64
  %14 = getelementptr inbounds [100 x i8], [100 x i8]* %2, i64 0, i64 %13
  %15 = load i8, i8* %14, align 1
  %16 = sext i8 %15 to i32
  %17 = icmp sgt i32 %16, 0
  br i1 %17, label %18, label %21

18:                                               ; preds = %11
  %19 = load i32, i32* %6, align 4
  %20 = add nsw i32 %19, 1
  store i32 %20, i32* %6, align 4
  br label %11

21:                                               ; preds = %11
  store i64 0, i64* %5, align 8
  store i32 0, i32* %7, align 4
  br label %22

22:                                               ; preds = %37, %21
  %23 = load i32, i32* %7, align 4
  %24 = load i32, i32* %6, align 4
  %25 = icmp slt i32 %23, %24
  br i1 %25, label %26, label %40

26:                                               ; preds = %22
  %27 = load i64, i64* %5, align 8
  %28 = load i64, i64* %3, align 8
  %29 = mul nsw i64 %27, %28
  %30 = load i32, i32* %7, align 4
  %31 = sext i32 %30 to i64
  %32 = getelementptr inbounds [100 x i8], [100 x i8]* %2, i64 0, i64 %31
  %33 = load i8, i8* %32, align 1
  %34 = call i32 @chrtoint(i8 signext %33)
  %35 = sext i32 %34 to i64
  %36 = add nsw i64 %29, %35
  store i64 %36, i64* %5, align 8
  br label %37

37:                                               ; preds = %26
  %38 = load i32, i32* %7, align 4
  %39 = add nsw i32 %38, 1
  store i32 %39, i32* %7, align 4
  br label %22

40:                                               ; preds = %22
  %41 = getelementptr inbounds [100 x i8], [100 x i8]* %2, i64 0, i64 0
  store i8 48, i8* %41, align 16
  store i32 0, i32* %6, align 4
  br label %42

42:                                               ; preds = %45, %40
  %43 = load i64, i64* %5, align 8
  %44 = icmp sgt i64 %43, 0
  br i1 %44, label %45, label %59

45:                                               ; preds = %42
  %46 = load i64, i64* %5, align 8
  %47 = load i64, i64* %4, align 8
  %48 = srem i64 %46, %47
  %49 = trunc i64 %48 to i32
  %50 = call signext i8 @inttochr(i32 %49)
  %51 = load i32, i32* %6, align 4
  %52 = sext i32 %51 to i64
  %53 = getelementptr inbounds [100 x i8], [100 x i8]* %2, i64 0, i64 %52
  store i8 %50, i8* %53, align 1
  %54 = load i32, i32* %6, align 4
  %55 = add nsw i32 %54, 1
  store i32 %55, i32* %6, align 4
  %56 = load i64, i64* %4, align 8
  %57 = load i64, i64* %5, align 8
  %58 = sdiv i64 %57, %56
  store i64 %58, i64* %5, align 8
  br label %42

59:                                               ; preds = %42
  %60 = load i32, i32* %6, align 4
  %61 = icmp eq i32 %60, 0
  br i1 %61, label %62, label %65

62:                                               ; preds = %59
  %63 = load i32, i32* %6, align 4
  %64 = add nsw i32 %63, 1
  store i32 %64, i32* %6, align 4
  br label %65

65:                                               ; preds = %62, %59
  %66 = load i32, i32* %6, align 4
  %67 = sub nsw i32 %66, 1
  store i32 %67, i32* %7, align 4
  br label %68

68:                                               ; preds = %78, %65
  %69 = load i32, i32* %7, align 4
  %70 = icmp sge i32 %69, 0
  br i1 %70, label %71, label %81

71:                                               ; preds = %68
  %72 = load i32, i32* %7, align 4
  %73 = sext i32 %72 to i64
  %74 = getelementptr inbounds [100 x i8], [100 x i8]* %2, i64 0, i64 %73
  %75 = load i8, i8* %74, align 1
  %76 = sext i8 %75 to i32
  %77 = call i32 @putchar(i32 %76)
  br label %78

78:                                               ; preds = %71
  %79 = load i32, i32* %7, align 4
  %80 = add nsw i32 %79, -1
  store i32 %80, i32* %7, align 4
  br label %68

81:                                               ; preds = %68
  ret i32 0
}

; Function Attrs: argmemonly nounwind willreturn
declare void @llvm.memset.p0i8.i64(i8* nocapture writeonly, i8, i64, i1 immarg) #1

declare dso_local i32 @__isoc99_scanf(i8*, ...) #2

declare dso_local i32 @putchar(i32) #2


!llvm.module.flags = !{!0}
!llvm.ident = !{!1}

!0 = !{i32 1, !"wchar_size", i32 4}
!1 = !{!"clang version 10.0.0-4ubuntu1 "}
